target datalayout = "e-m:e-p270:32:32-p271:32:32-p272:64:64-i64:64-i128:128-f80:128-n8:16:32:64-S128"
target triple = "x86_64-unknown-linux-gnu"

%"struct.node::AssertionInfo" = type { ptr, ptr, ptr }
%"class.node::crypto::ManagedEVPPKey" = type { %"class.node::MemoryRetainer", %"class.std::unique_ptr", %"class.std::shared_ptr" }
%"class.node::MemoryRetainer" = type { ptr }
%"class.std::unique_ptr" = type { %"struct.std::__uniq_ptr_data" }
%"struct.std::__uniq_ptr_data" = type { %"class.std::__uniq_ptr_impl" }
%"class.std::__uniq_ptr_impl" = type { %"class.std::tuple" }
%"class.std::tuple" = type { %"struct.std::_Tuple_impl" }
%"struct.std::_Tuple_impl" = type { %"struct.std::_Head_base.1" }
%"struct.std::_Head_base.1" = type { ptr }
%"class.std::shared_ptr" = type { %"class.std::__shared_ptr" }
%"class.std::__shared_ptr" = type { ptr, %"class.std::__shared_count" }
%"class.std::__shared_count" = type { ptr }
%"class.v8::Local.10" = type { %"class.v8::LocalBase.11" }
%"class.v8::LocalBase.11" = type { %"class.v8::IndirectHandleBase" }
%"class.v8::IndirectHandleBase" = type { ptr }
%"class.v8::Local" = type { %"class.v8::LocalBase" }
%"class.v8::LocalBase" = type { %"class.v8::IndirectHandleBase" }
%"class.std::shared_ptr.7" = type { %"class.std::__shared_ptr.8" }
%"class.std::__shared_ptr.8" = type { ptr, %"class.std::__shared_count" }
%"class.node::crypto::KeyObjectData" = type { %"class.node::MemoryRetainer", i32, %"class.node::crypto::ByteSource", %"class.node::crypto::ManagedEVPPKey" }
%"class.node::crypto::ByteSource" = type { ptr, ptr, i64 }
%"class.v8::MaybeLocal.291" = type { %"class.v8::Local" }
%"class.v8::MaybeLocal" = type { %"class.v8::Local.10" }
%"class.node::crypto::KeyObjectHandle" = type { %"class.node::BaseObject", %"class.std::shared_ptr.7" }
%"class.node::BaseObject" = type { %"class.node::MemoryRetainer", %"class.v8::Global.293", ptr, ptr }
%"class.v8::Global.293" = type { %"class.v8::PersistentBase.294" }
%"class.v8::PersistentBase.294" = type { %"class.v8::IndirectHandleBase" }
%"struct.std::__detail::_Hash_node_base" = type { ptr }
%"struct.std::__detail::_Prime_rehash_policy" = type { float, i64 }
%"class.v8::Global.47" = type { %"class.v8::PersistentBase.48" }
%"class.v8::PersistentBase.48" = type { %"class.v8::IndirectHandleBase" }
%"class.std::vector.136" = type { %"struct.std::_Vector_base.137" }
%"struct.std::_Vector_base.137" = type { %"struct.std::_Vector_base<std::__cxx11::basic_string<char>, std::allocator<std::__cxx11::basic_string<char>>>::_Vector_impl" }
%"struct.std::_Vector_base<std::__cxx11::basic_string<char>, std::allocator<std::__cxx11::basic_string<char>>>::_Vector_impl" = type { %"struct.std::_Vector_base<std::__cxx11::basic_string<char>, std::allocator<std::__cxx11::basic_string<char>>>::_Vector_impl_data" }
%"struct.std::_Vector_base<std::__cxx11::basic_string<char>, std::allocator<std::__cxx11::basic_string<char>>>::_Vector_impl_data" = type { ptr, ptr, ptr }
%"class.node::CleanupQueue" = type { %"class.node::MemoryRetainer", %"class.std::unordered_set.224", i64 }
%"class.std::unordered_set.224" = type { %"class.std::_Hashtable.225" }
%"class.std::_Hashtable.225" = type { ptr, i64, %"struct.std::__detail::_Hash_node_base", i64, %"struct.std::__detail::_Prime_rehash_policy", ptr }
%"class.node::Realm" = type { %"class.node::MemoryRetainer", %"class.std::set", %"class.std::set.471", %"class.std::set.471", %"class.std::vector.136", ptr, ptr, %"class.v8::Global.479", %"class.v8::Global.47", %"class.v8::Global.47", %"class.v8::Global.47", %"class.v8::Global.293", %"class.v8::Global.47", %"class.v8::Global.47", %"class.v8::Global.47", %"class.v8::Global.293", %"class.v8::Global.47", %"class.v8::Global.47", %"class.v8::Global.47", %"class.v8::Global.47", %"class.v8::Global.47", %"class.v8::Global.47", %"class.v8::Global.47", %"class.v8::Global.47", %"class.v8::Global.47", %"class.v8::Global.47", %"class.v8::Global.47", %"class.v8::Global.47", %"class.v8::Global.47", %"class.v8::Global.47", %"class.v8::Global.47", %"class.v8::Global.47", %"class.v8::Global.47", %"class.v8::Global.47", %"class.v8::Global.47", %"class.v8::Global.47", %"class.v8::Global.47", %"class.v8::Global.47", %"class.v8::Global.47", %"class.v8::Global.47", %"class.v8::Global.47", %"class.v8::Global.47", %"class.v8::Global.47", %"class.v8::Global.47", %"class.v8::Global.293", %"class.v8::Global.47", %"class.v8::Global.47", %"class.v8::Global.47", %"class.v8::Global.293", %"class.v8::Global.293", %"class.v8::Global.293", %"class.v8::Global.293", %"class.v8::Global.293", %"class.v8::Global.293", %"class.v8::Global.47", %"class.v8::Global.47", %"class.v8::Global.47", %"class.v8::Global.47", %"class.v8::Global.47", %"class.v8::Global.47", %"class.v8::Global.47", %"class.v8::Global.47", %"class.v8::Global.47", %"class.v8::Global.47", %"class.v8::Global.47", %"class.v8::Global.47", %"class.v8::Global.47", %"class.v8::Global.47", i32, i8, i64, i64, %"struct.std::array.481", %"class.node::CleanupQueue" }
%"class.std::set" = type { %"class.std::_Rb_tree" }
%"class.std::_Rb_tree" = type { %"struct.std::_Rb_tree<node::node_module *, node::node_module *, std::_Identity<node::node_module *>, std::less<node::node_module *>>::_Rb_tree_impl" }
%"struct.std::_Rb_tree<node::node_module *, node::node_module *, std::_Identity<node::node_module *>, std::less<node::node_module *>>::_Rb_tree_impl" = type { %"struct.std::_Rb_tree_key_compare", %"struct.std::_Rb_tree_header" }
%"struct.std::_Rb_tree_key_compare" = type { %"struct.std::less" }
%"struct.std::less" = type { i8 }
%"struct.std::_Rb_tree_header" = type { %"struct.std::_Rb_tree_node_base", i64 }
%"struct.std::_Rb_tree_node_base" = type { i32, ptr, ptr, ptr }
%"class.std::set.471" = type { %"class.std::_Rb_tree.472" }
%"class.std::_Rb_tree.472" = type { %"struct.std::_Rb_tree<std::__cxx11::basic_string<char>, std::__cxx11::basic_string<char>, std::_Identity<std::__cxx11::basic_string<char>>, std::less<std::__cxx11::basic_string<char>>>::_Rb_tree_impl" }
%"struct.std::_Rb_tree<std::__cxx11::basic_string<char>, std::__cxx11::basic_string<char>, std::_Identity<std::__cxx11::basic_string<char>>, std::less<std::__cxx11::basic_string<char>>>::_Rb_tree_impl" = type { %"struct.std::_Rb_tree_key_compare.476", %"struct.std::_Rb_tree_header" }
%"struct.std::_Rb_tree_key_compare.476" = type { %"struct.std::less.477" }
%"struct.std::less.477" = type { i8 }
%"class.v8::Global.479" = type { %"class.v8::PersistentBase.480" }
%"class.v8::PersistentBase.480" = type { %"class.v8::IndirectHandleBase" }
%"struct.std::array.481" = type { [12 x %"class.node::BaseObjectPtrImpl.482"] }
%"class.node::BaseObjectPtrImpl.482" = type { %union.anon.483 }
%union.anon.483 = type { ptr }

@_ZZNK4node6crypto13KeyObjectData15GetSymmetricKeyEvE4args = internal constant %"struct.node::AssertionInfo" { ptr @.str.41, ptr @.str.42, ptr @.str.43 }, align 8
@_ZZNK4node6crypto13KeyObjectData19GetSymmetricKeySizeEvE4args = internal constant %"struct.node::AssertionInfo" { ptr @.str.44, ptr @.str.42, ptr @.str.45 }, align 8

; Function Attrs: mustprogress nounwind uwtable
define linkonce_odr dso_local noundef ptr @_ZNKSt12__shared_ptrIN4node6crypto13KeyObjectDataELN9__gnu_cxx12_Lock_policyE2EE3getEv(ptr noundef nonnull align 8 dereferenceable(16) %this) #4 comdat align 2 {
entry:
  %this.addr = alloca ptr, align 8
  store ptr %this, ptr %this.addr, align 8
  %this1 = load ptr, ptr %this.addr, align 8
  %_M_ptr = getelementptr inbounds %"class.std::__shared_ptr.8", ptr %this1, i32 0, i32 0
  %0 = load ptr, ptr %_M_ptr, align 8
  ret ptr %0
}

; Function Attrs: mustprogress nounwind uwtable
define linkonce_odr dso_local noundef ptr @_ZNK4node5Realm3envEv(ptr noundef nonnull align 8 dereferenceable(872) %this) #4 comdat align 2 {
entry:
  %this.addr = alloca ptr, align 8
  store ptr %this, ptr %this.addr, align 8
  %this1 = load ptr, ptr %this.addr, align 8
  %env_ = getelementptr inbounds %"class.node::Realm", ptr %this1, i32 0, i32 5
  %0 = load ptr, ptr %env_, align 8
  ret ptr %0
}

; Function Attrs: mustprogress nounwind uwtable
define linkonce_odr dso_local noundef i64 @_ZNK4node6crypto10ByteSource4sizeEv(ptr noundef nonnull align 8 dereferenceable(24) %this) #4 comdat align 2 {
entry:
  %this.addr = alloca ptr, align 8
  store ptr %this, ptr %this.addr, align 8
  %this1 = load ptr, ptr %this.addr, align 8
  %size_ = getelementptr inbounds %"class.node::crypto::ByteSource", ptr %this1, i32 0, i32 2
  %0 = load i64, ptr %size_, align 8
  ret i64 %0
}

; Function Attrs: mustprogress nounwind uwtable
define linkonce_odr dso_local noundef ptr @_ZNK4node6crypto10ByteSource4dataIcEEPKT_v(ptr noundef nonnull align 8 dereferenceable(24) %this) #4 comdat align 2 {
entry:
  %this.addr = alloca ptr, align 8
  store ptr %this, ptr %this.addr, align 8
  %this1 = load ptr, ptr %this.addr, align 8
  %data_ = getelementptr inbounds %"class.node::crypto::ByteSource", ptr %this1, i32 0, i32 0
  %0 = load ptr, ptr %data_, align 8
  ret ptr %0
}

; Function Attrs: mustprogress nounwind uwtable
define linkonce_odr dso_local noundef ptr @_ZNKSt19__shared_ptr_accessIN4node6crypto13KeyObjectDataELN9__gnu_cxx12_Lock_policyE2ELb0ELb0EE6_M_getEv(ptr noundef nonnull align 1 dereferenceable(1) %this) #4 comdat align 2 {
entry:
  %this.addr = alloca ptr, align 8
  store ptr %this, ptr %this.addr, align 8
  %this1 = load ptr, ptr %this.addr, align 8
  %call = call noundef ptr @_ZNKSt12__shared_ptrIN4node6crypto13KeyObjectDataELN9__gnu_cxx12_Lock_policyE2EE3getEv(ptr noundef nonnull align 8 dereferenceable(16) %this1) #3
  ret ptr %call
}

; Function Attrs: mustprogress nounwind uwtable
define linkonce_odr dso_local noundef ptr @_ZNK4node10BaseObject3envEv(ptr noundef nonnull align 8 dereferenceable(32) %this) #4 comdat align 2 {
entry:
  %this.addr = alloca ptr, align 8
  store ptr %this, ptr %this.addr, align 8
  %this1 = load ptr, ptr %this.addr, align 8
  %realm_ = getelementptr inbounds %"class.node::BaseObject", ptr %this1, i32 0, i32 2
  %0 = load ptr, ptr %realm_, align 8
  %call = call noundef ptr @_ZNK4node5Realm3envEv(ptr noundef nonnull align 8 dereferenceable(872) %0)
  ret ptr %call
}

; Function Attrs: mustprogress nounwind uwtable
define dso_local noundef i64 @_ZNK4node6crypto13KeyObjectData19GetSymmetricKeySizeEv(ptr noundef nonnull align 8 dereferenceable(72) %this) #4 align 2 {
entry:
  %this.addr = alloca ptr, align 8
  store ptr %this, ptr %this.addr, align 8
  %this1 = load ptr, ptr %this.addr, align 8
  br label %do.body

do.body:                                          ; preds = %entry
  %key_type_ = getelementptr inbounds %"class.node::crypto::KeyObjectData", ptr %this1, i32 0, i32 1
  %0 = load i32, ptr %key_type_, align 8
  %cmp = icmp eq i32 %0, 0
  %lnot = xor i1 %cmp, true
  %lnot2 = xor i1 %lnot, true
  %lnot3 = xor i1 %lnot2, true
  br i1 %lnot3, label %if.then, label %if.end

if.then:                                          ; preds = %do.body
  br label %do.body4

do.body4:                                         ; preds = %if.then
  call void @_ZN4node6AssertERKNS_13AssertionInfoE(ptr noundef nonnull align 8 dereferenceable(24) @_ZZNK4node6crypto13KeyObjectData19GetSymmetricKeySizeEvE4args)
  call void @abort() #14
  unreachable

do.end:                                           ; No predecessors!
  br label %if.end

if.end:                                           ; preds = %do.end, %do.body
  br label %do.end5

do.end5:                                          ; preds = %if.end
  %symmetric_key_ = getelementptr inbounds %"class.node::crypto::KeyObjectData", ptr %this1, i32 0, i32 2
  %call = call noundef i64 @_ZNK4node6crypto10ByteSource4sizeEv(ptr noundef nonnull align 8 dereferenceable(24) %symmetric_key_)
  ret i64 %call
}

; Function Attrs: mustprogress nounwind uwtable
define dso_local noundef ptr @_ZNK4node6crypto13KeyObjectData15GetSymmetricKeyEv(ptr noundef nonnull align 8 dereferenceable(72) %this) #4 align 2 {
entry:
  %this.addr = alloca ptr, align 8
  store ptr %this, ptr %this.addr, align 8
  %this1 = load ptr, ptr %this.addr, align 8
  br label %do.body

do.body:                                          ; preds = %entry
  %key_type_ = getelementptr inbounds %"class.node::crypto::KeyObjectData", ptr %this1, i32 0, i32 1
  %0 = load i32, ptr %key_type_, align 8
  %cmp = icmp eq i32 %0, 0
  %lnot = xor i1 %cmp, true
  %lnot2 = xor i1 %lnot, true
  %lnot3 = xor i1 %lnot2, true
  br i1 %lnot3, label %if.then, label %if.end

if.then:                                          ; preds = %do.body
  br label %do.body4

do.body4:                                         ; preds = %if.then
  call void @_ZN4node6AssertERKNS_13AssertionInfoE(ptr noundef nonnull align 8 dereferenceable(24) @_ZZNK4node6crypto13KeyObjectData15GetSymmetricKeyEvE4args)
  call void @abort() #14
  unreachable

do.end:                                           ; No predecessors!
  br label %if.end

if.end:                                           ; preds = %do.end, %do.body
  br label %do.end5

do.end5:                                          ; preds = %if.end
  %symmetric_key_ = getelementptr inbounds %"class.node::crypto::KeyObjectData", ptr %this1, i32 0, i32 2
  %call = call noundef ptr @_ZNK4node6crypto10ByteSource4dataIcEEPKT_v(ptr noundef nonnull align 8 dereferenceable(24) %symmetric_key_)
  ret ptr %call
}

; Function Attrs: mustprogress nounwind uwtable
define linkonce_odr dso_local noundef ptr @_ZNKSt19__shared_ptr_accessIN4node6crypto13KeyObjectDataELN9__gnu_cxx12_Lock_policyE2ELb0ELb0EEptEv(ptr noundef nonnull align 1 dereferenceable(1) %this) #4 comdat align 2 {
entry:
  %this.addr = alloca ptr, align 8
  store ptr %this, ptr %this.addr, align 8
  %this1 = load ptr, ptr %this.addr, align 8
  %call = call noundef ptr @_ZNKSt19__shared_ptr_accessIN4node6crypto13KeyObjectDataELN9__gnu_cxx12_Lock_policyE2ELb0ELb0EE6_M_getEv(ptr noundef nonnull align 1 dereferenceable(1) %this1) #3
  ret ptr %call
}

; Function Attrs: mustprogress nounwind uwtable
define dso_local ptr @_ZNK4node6crypto15KeyObjectHandle15ExportSecretKeyEv(ptr noundef nonnull align 8 dereferenceable(48) %this) #4 align 2 {
entry:
  %this.addr.i37 = alloca ptr, align 8
  %other.addr.i = alloca ptr, align 8
  %this.addr.i.i33 = alloca ptr, align 8
  %this.addr.i34 = alloca ptr, align 8
  %this.addr.i.i30 = alloca ptr, align 8
  %this.addr.i31 = alloca ptr, align 8
  %that.i = alloca %"class.v8::Local", align 8
  %this.addr.i28 = alloca ptr, align 8
  %that.i.i = alloca %"class.v8::Local.10", align 8
  %this.addr.i.i = alloca ptr, align 8
  %retval.i = alloca %"class.v8::Local", align 8
  %default_value.i = alloca %"class.v8::Local", align 8
  %this.addr.i27 = alloca ptr, align 8
  %agg.tmp.i = alloca %"class.v8::Local.10", align 8
  %this.addr.i = alloca ptr, align 8
  %retval = alloca %"class.v8::MaybeLocal.291", align 8
  %this.addr = alloca ptr, align 8
  %buf = alloca ptr, align 8
  %len = alloca i32, align 4
  %agg.tmp = alloca %"class.v8::Local", align 8
  %ref.tmp = alloca %"class.v8::MaybeLocal", align 8
  %agg.tmp12 = alloca %"class.v8::Local", align 8
  store ptr %this, ptr %this.addr, align 8
  %this1 = load ptr, ptr %this.addr, align 8
  %data_ = getelementptr inbounds %"class.node::crypto::KeyObjectHandle", ptr %this1, i32 0, i32 1
  %call = call noundef ptr @_ZNKSt19__shared_ptr_accessIN4node6crypto13KeyObjectDataELN9__gnu_cxx12_Lock_policyE2ELb0ELb0EEptEv(ptr noundef nonnull align 1 dereferenceable(1) %data_) #3
  %call2 = call noundef ptr @_ZNK4node6crypto13KeyObjectData15GetSymmetricKeyEv(ptr noundef nonnull align 8 dereferenceable(72) %call)
  store ptr %call2, ptr %buf, align 8
  %data_3 = getelementptr inbounds %"class.node::crypto::KeyObjectHandle", ptr %this1, i32 0, i32 1
  %call4 = call noundef ptr @_ZNKSt19__shared_ptr_accessIN4node6crypto13KeyObjectDataELN9__gnu_cxx12_Lock_policyE2ELb0ELb0EEptEv(ptr noundef nonnull align 1 dereferenceable(1) %data_3) #3
  %call5 = call noundef i64 @_ZNK4node6crypto13KeyObjectData19GetSymmetricKeySizeEv(ptr noundef nonnull align 8 dereferenceable(72) %call4)
  %conv = trunc i64 %call5 to i32
  store i32 %conv, ptr %len, align 4
  %call6 = call noundef ptr @_ZNK4node10BaseObject3envEv(ptr noundef nonnull align 8 dereferenceable(32) %this1)
  %0 = load ptr, ptr %buf, align 8
  %1 = load i32, ptr %len, align 4
  %conv7 = zext i32 %1 to i64
  %call8 = call ptr @_ZN4node6Buffer4CopyEPNS_11EnvironmentEPKcm(ptr noundef %call6, ptr noundef %0, i64 noundef %conv7)
  %coerce.dive = getelementptr inbounds %"class.v8::MaybeLocal", ptr %ref.tmp, i32 0, i32 0
  %coerce.dive9 = getelementptr inbounds %"class.v8::Local.10", ptr %coerce.dive, i32 0, i32 0
  %coerce.dive10 = getelementptr inbounds %"class.v8::LocalBase.11", ptr %coerce.dive9, i32 0, i32 0
  %coerce.dive11 = getelementptr inbounds %"class.v8::IndirectHandleBase", ptr %coerce.dive10, i32 0, i32 0
  store ptr %call8, ptr %coerce.dive11, align 8
  call void @llvm.memset.p0.i64(ptr align 8 %agg.tmp12, i8 0, i64 8, i1 false)
  store ptr %agg.tmp12, ptr %this.addr.i, align 8
  %this1.i = load ptr, ptr %this.addr.i, align 8
  store ptr %this1.i, ptr %this.addr.i34, align 8
  %this1.i35 = load ptr, ptr %this.addr.i34, align 8
  store ptr %this1.i35, ptr %this.addr.i.i33, align 8
  %this1.i.i36 = load ptr, ptr %this.addr.i.i33, align 8
  store ptr null, ptr %this1.i.i36, align 8
  %coerce.dive13 = getelementptr inbounds %"class.v8::Local", ptr %agg.tmp12, i32 0, i32 0
  %coerce.dive14 = getelementptr inbounds %"class.v8::LocalBase", ptr %coerce.dive13, i32 0, i32 0
  %coerce.dive15 = getelementptr inbounds %"class.v8::IndirectHandleBase", ptr %coerce.dive14, i32 0, i32 0
  %2 = load ptr, ptr %coerce.dive15, align 8
  store ptr %2, ptr %default_value.i, align 8
  store ptr %ref.tmp, ptr %this.addr.i27, align 8
  %this3.i = load ptr, ptr %this.addr.i27, align 8
  store ptr %this3.i, ptr %this.addr.i31, align 8
  %this1.i32 = load ptr, ptr %this.addr.i31, align 8
  store ptr %this1.i32, ptr %this.addr.i.i30, align 8
  %this1.i.i = load ptr, ptr %this.addr.i.i30, align 8
  %3 = load ptr, ptr %this1.i.i, align 8
  %cmp.i.i = icmp eq ptr %3, null
  br i1 %cmp.i.i, label %cond.true.i, label %cond.false.i

cond.true.i:                                      ; preds = %entry
  call void @llvm.memcpy.p0.p0.i64(ptr align 8 %retval.i, ptr align 8 %default_value.i, i64 8, i1 false)
  br label %_ZNK2v810MaybeLocalINS_6ObjectEE9FromMaybeINS_5ValueEEENS_5LocalIT_EES7_.exit

cond.false.i:                                     ; preds = %entry
  call void @llvm.memcpy.p0.p0.i64(ptr align 8 %agg.tmp.i, ptr align 8 %this3.i, i64 8, i1 false)
  %4 = load ptr, ptr %agg.tmp.i, align 8
  store ptr %4, ptr %that.i.i, align 8
  store ptr %retval.i, ptr %this.addr.i.i, align 8
  %this3.i.i = load ptr, ptr %this.addr.i.i, align 8
  store ptr %this3.i.i, ptr %this.addr.i37, align 8
  store ptr %that.i.i, ptr %other.addr.i, align 8
  %this1.i38 = load ptr, ptr %this.addr.i37, align 8
  %5 = load ptr, ptr %other.addr.i, align 8
  call void @llvm.memcpy.p0.p0.i64(ptr align 8 %this1.i38, ptr align 8 %5, i64 8, i1 false)
  br label %_ZNK2v810MaybeLocalINS_6ObjectEE9FromMaybeINS_5ValueEEENS_5LocalIT_EES7_.exit

_ZNK2v810MaybeLocalINS_6ObjectEE9FromMaybeINS_5ValueEEENS_5LocalIT_EES7_.exit: ; preds = %cond.false.i, %cond.true.i
  %6 = load ptr, ptr %retval.i, align 8
  %coerce.dive17 = getelementptr inbounds %"class.v8::Local", ptr %agg.tmp, i32 0, i32 0
  %coerce.dive18 = getelementptr inbounds %"class.v8::LocalBase", ptr %coerce.dive17, i32 0, i32 0
  %coerce.dive19 = getelementptr inbounds %"class.v8::IndirectHandleBase", ptr %coerce.dive18, i32 0, i32 0
  store ptr %6, ptr %coerce.dive19, align 8
  %coerce.dive20 = getelementptr inbounds %"class.v8::Local", ptr %agg.tmp, i32 0, i32 0
  %coerce.dive21 = getelementptr inbounds %"class.v8::LocalBase", ptr %coerce.dive20, i32 0, i32 0
  %coerce.dive22 = getelementptr inbounds %"class.v8::IndirectHandleBase", ptr %coerce.dive21, i32 0, i32 0
  %7 = load ptr, ptr %coerce.dive22, align 8
  store ptr %7, ptr %that.i, align 8
  store ptr %retval, ptr %this.addr.i28, align 8
  %this3.i29 = load ptr, ptr %this.addr.i28, align 8
  call void @llvm.memcpy.p0.p0.i64(ptr align 8 %this3.i29, ptr align 8 %that.i, i64 8, i1 false)
  %coerce.dive23 = getelementptr inbounds %"class.v8::MaybeLocal.291", ptr %retval, i32 0, i32 0
  %coerce.dive24 = getelementptr inbounds %"class.v8::Local", ptr %coerce.dive23, i32 0, i32 0
  %coerce.dive25 = getelementptr inbounds %"class.v8::LocalBase", ptr %coerce.dive24, i32 0, i32 0
  %coerce.dive26 = getelementptr inbounds %"class.v8::IndirectHandleBase", ptr %coerce.dive25, i32 0, i32 0
  %8 = load ptr, ptr %coerce.dive26, align 8
  ret ptr %8
}