; Function Attrs: mustprogress nounwind uwtable
define dso_local ptr @_ZNK4node6crypto15KeyObjectHandle15ExportSecretKeyEv(ptr nocapture noundef nonnull readonly align 8 dereferenceable(48) %this) local_unnamed_addr #3 align 2 {
entry:
  %data_ = getelementptr inbounds i8, ptr %this, i64 32
  %0 = load ptr, ptr %data_, align 8
  %key_type_.i = getelementptr inbounds i8, ptr %0, i64 8
  %1 = load i32, ptr %key_type_.i, align 8
  %cmp.not.i = icmp eq i32 %1, 0
  br i1 %cmp.not.i, label %_ZNK4node6crypto13KeyObjectData19GetSymmetricKeySizeEv.exit, label %do.body4.i

do.body4.i:                                       ; preds = %entry
  tail call void @_ZN4node6AssertERKNS_13AssertionInfoE(ptr noundef nonnull align 8 dereferenceable(24) @_ZZNK4node6crypto13KeyObjectData15GetSymmetricKeyEvE4args) #24
  tail call void @abort() #25
  unreachable

_ZNK4node6crypto13KeyObjectData19GetSymmetricKeySizeEv.exit: ; preds = %entry
  %symmetric_key_.i = getelementptr inbounds i8, ptr %0, i64 16
  %2 = load ptr, ptr %symmetric_key_.i, align 8
  %size_.i.i = getelementptr inbounds i8, ptr %0, i64 32
  %3 = load i64, ptr %size_.i.i, align 8
  %realm_.i = getelementptr inbounds i8, ptr %this, i64 16
  %4 = load ptr, ptr %realm_.i, align 8
  %env_.i.i = getelementptr inbounds i8, ptr %4, i64 176
  %5 = load ptr, ptr %env_.i.i, align 8
  %conv7 = and i64 %3, 4294967295
  %call8 = tail call ptr @_ZN4node6Buffer4CopyEPNS_11EnvironmentEPKcm(ptr noundef %5, ptr noundef %2, i64 noundef %conv7) #24
  ret ptr %call8
}